target datalayout = "e-m:e-p270:32:32-p271:32:32-p272:64:64-i64:64-i128:128-f80:128-n8:16:32:64-S128"
target triple = "x86_64-pc-linux-gnu"

%"struct.rocksdb::IOStatsContext" = type <{ i64, i64, i64, i64, i64, i64, i64, i64, i64, i64, i64, i64, i64, %"struct.rocksdb::FileIOByTemperature", i8, [7 x i8] }>
%"struct.rocksdb::FileIOByTemperature" = type { i64, i64, i64, i64, i64, i64 }
%"class.std::unique_ptr.487" = type { %"struct.std::__uniq_ptr_data.488" }
%"struct.std::__uniq_ptr_data.488" = type { %"class.std::__uniq_ptr_impl.489" }
%"class.std::__uniq_ptr_impl.489" = type { %"class.std::tuple.490" }
%"class.std::tuple.490" = type { %"struct.std::_Tuple_impl.491" }
%"struct.std::_Tuple_impl.491" = type { %"struct.std::_Head_base.494" }
%"struct.std::_Head_base.494" = type { ptr }
%"struct.rocksdb::DBImpl::CompactionArg" = type { ptr, ptr, i32 }
%"struct.rocksdb::DBImpl::PrepickedCompaction" = type { ptr, ptr, %"class.std::unique_ptr.487" }

@_ZN7rocksdb15iostats_contextE = external thread_local global %"struct.rocksdb::IOStatsContext", align 8

; Function Attrs: mustprogress nounwind uwtable
define linkonce_odr noundef nonnull align 1 dereferenceable(1) ptr @_ZNSt10_Head_baseILm1ESt14default_deleteIN7rocksdb16TaskLimiterTokenEELb1EE7_M_headERS4_(ptr noundef nonnull align 1 dereferenceable(1) %0) #4 comdat align 2 {
  %2 = alloca ptr, align 8
  store ptr %0, ptr %2, align 8, !tbaa !2005
  %3 = load ptr, ptr %2, align 8, !tbaa !2005
  ret ptr %3
}

; Function Attrs: mustprogress nounwind uwtable
define linkonce_odr noundef nonnull align 1 dereferenceable(1) ptr @_ZNSt11_Tuple_implILm1EJSt14default_deleteIN7rocksdb16TaskLimiterTokenEEEE7_M_headERS4_(ptr noundef nonnull align 1 dereferenceable(1) %0) #4 comdat align 2 {
  %2 = alloca ptr, align 8
  store ptr %0, ptr %2, align 8, !tbaa !2003
  %3 = load ptr, ptr %2, align 8, !tbaa !2003
  %4 = call noundef nonnull align 1 dereferenceable(1) ptr @_ZNSt10_Head_baseILm1ESt14default_deleteIN7rocksdb16TaskLimiterTokenEELb1EE7_M_headERS4_(ptr noundef nonnull align 1 dereferenceable(1) %3) #5
  ret ptr %4
}

; Function Attrs: mustprogress nounwind uwtable
define linkonce_odr noundef nonnull align 8 dereferenceable(8) ptr @_ZNSt10_Head_baseILm0EPN7rocksdb16TaskLimiterTokenELb0EE7_M_headERS3_(ptr noundef nonnull align 8 dereferenceable(8) %0) #4 comdat align 2 {
  %2 = alloca ptr, align 8
  store ptr %0, ptr %2, align 8, !tbaa !2001
  %3 = load ptr, ptr %2, align 8, !tbaa !2001
  %4 = getelementptr inbounds nuw %"struct.std::_Head_base.494", ptr %3, i32 0, i32 0
  ret ptr %4
}

; Function Attrs: mustprogress nounwind uwtable
define linkonce_odr noundef nonnull align 1 dereferenceable(1) ptr @_ZSt12__get_helperILm1ESt14default_deleteIN7rocksdb16TaskLimiterTokenEEJEERT0_RSt11_Tuple_implIXT_EJS4_DpT1_EE(ptr noundef nonnull align 1 dereferenceable(1) %0) #4 comdat {
  %2 = alloca ptr, align 8
  store ptr %0, ptr %2, align 8, !tbaa !2003
  %3 = load ptr, ptr %2, align 8, !tbaa !2003
  %4 = call noundef nonnull align 1 dereferenceable(1) ptr @_ZNSt11_Tuple_implILm1EJSt14default_deleteIN7rocksdb16TaskLimiterTokenEEEE7_M_headERS4_(ptr noundef nonnull align 1 dereferenceable(1) %3) #5
  ret ptr %4
}

; Function Attrs: mustprogress nounwind uwtable
define linkonce_odr noundef nonnull align 8 dereferenceable(8) ptr @_ZNSt11_Tuple_implILm0EJPN7rocksdb16TaskLimiterTokenESt14default_deleteIS1_EEE7_M_headERS5_(ptr noundef nonnull align 8 dereferenceable(8) %0) #4 comdat align 2 {
  %2 = alloca ptr, align 8
  store ptr %0, ptr %2, align 8, !tbaa !1999
  %3 = load ptr, ptr %2, align 8, !tbaa !1999
  %4 = call noundef nonnull align 8 dereferenceable(8) ptr @_ZNSt10_Head_baseILm0EPN7rocksdb16TaskLimiterTokenELb0EE7_M_headERS3_(ptr noundef nonnull align 8 dereferenceable(8) %3) #5
  ret ptr %4
}

; Function Attrs: mustprogress nounwind uwtable
define linkonce_odr noundef nonnull align 1 dereferenceable(1) ptr @_ZSt3getILm1EJPN7rocksdb16TaskLimiterTokenESt14default_deleteIS1_EEERNSt13tuple_elementIXT_ESt5tupleIJDpT0_EEE4typeERS9_(ptr noundef nonnull align 8 dereferenceable(8) %0) #4 comdat {
  %2 = alloca ptr, align 8
  store ptr %0, ptr %2, align 8, !tbaa !1997
  %3 = load ptr, ptr %2, align 8, !tbaa !1997
  %4 = call noundef nonnull align 1 dereferenceable(1) ptr @_ZSt12__get_helperILm1ESt14default_deleteIN7rocksdb16TaskLimiterTokenEEJEERT0_RSt11_Tuple_implIXT_EJS4_DpT1_EE(ptr noundef nonnull align 1 dereferenceable(1) %3) #5
  ret ptr %4
}

; Function Attrs: mustprogress nounwind uwtable
define linkonce_odr noundef nonnull align 8 dereferenceable(8) ptr @_ZSt12__get_helperILm0EPN7rocksdb16TaskLimiterTokenEJSt14default_deleteIS1_EEERT0_RSt11_Tuple_implIXT_EJS5_DpT1_EE(ptr noundef nonnull align 8 dereferenceable(8) %0) #4 comdat {
  %2 = alloca ptr, align 8
  store ptr %0, ptr %2, align 8, !tbaa !1999
  %3 = load ptr, ptr %2, align 8, !tbaa !1999
  %4 = call noundef nonnull align 8 dereferenceable(8) ptr @_ZNSt11_Tuple_implILm0EJPN7rocksdb16TaskLimiterTokenESt14default_deleteIS1_EEE7_M_headERS5_(ptr noundef nonnull align 8 dereferenceable(8) %3) #5
  ret ptr %4
}

; Function Attrs: mustprogress nounwind uwtable
define linkonce_odr noundef nonnull align 1 dereferenceable(1) ptr @_ZNSt15__uniq_ptr_implIN7rocksdb16TaskLimiterTokenESt14default_deleteIS1_EE10_M_deleterEv(ptr noundef nonnull align 8 dereferenceable(8) %0) #4 comdat align 2 {
  %2 = alloca ptr, align 8
  store ptr %0, ptr %2, align 8, !tbaa !1993
  %3 = load ptr, ptr %2, align 8
  %4 = getelementptr inbounds nuw %"class.std::__uniq_ptr_impl.489", ptr %3, i32 0, i32 0
  %5 = call noundef nonnull align 1 dereferenceable(1) ptr @_ZSt3getILm1EJPN7rocksdb16TaskLimiterTokenESt14default_deleteIS1_EEERNSt13tuple_elementIXT_ESt5tupleIJDpT0_EEE4typeERS9_(ptr noundef nonnull align 8 dereferenceable(8) %4) #5
  ret ptr %5
}

; Function Attrs: mustprogress nounwind uwtable
define linkonce_odr noundef nonnull align 8 dereferenceable(8) ptr @_ZSt3getILm0EJPN7rocksdb16TaskLimiterTokenESt14default_deleteIS1_EEERNSt13tuple_elementIXT_ESt5tupleIJDpT0_EEE4typeERS9_(ptr noundef nonnull align 8 dereferenceable(8) %0) #4 comdat {
  %2 = alloca ptr, align 8
  store ptr %0, ptr %2, align 8, !tbaa !1997
  %3 = load ptr, ptr %2, align 8, !tbaa !1997
  %4 = call noundef nonnull align 8 dereferenceable(8) ptr @_ZSt12__get_helperILm0EPN7rocksdb16TaskLimiterTokenEJSt14default_deleteIS1_EEERT0_RSt11_Tuple_implIXT_EJS5_DpT1_EE(ptr noundef nonnull align 8 dereferenceable(8) %3) #5
  ret ptr %4
}

; Function Attrs: mustprogress nounwind uwtable
define linkonce_odr void @_ZNKSt14default_deleteIN7rocksdb16TaskLimiterTokenEEclEPS1_(ptr noundef nonnull align 1 dereferenceable(1) %0, ptr noundef %1) #4 comdat align 2 {
  %3 = alloca ptr, align 8
  %4 = alloca ptr, align 8
  store ptr %0, ptr %3, align 8, !tbaa !1995
  store ptr %1, ptr %4, align 8, !tbaa !462
  %5 = load ptr, ptr %4, align 8, !tbaa !462
  %6 = icmp eq ptr %5, null
  br i1 %6, label %8, label %7

7:                                                ; preds = %2
  call void @_ZN7rocksdb16TaskLimiterTokenD1Ev(ptr noundef nonnull align 8 dereferenceable(8) %5) #5
  call void @_ZdlPvm(ptr noundef %5, i64 noundef 8) #28
  br label %8

8:                                                ; preds = %7, %2
  ret void
}

; Function Attrs: mustprogress nounwind uwtable
define linkonce_odr noundef nonnull align 1 dereferenceable(1) ptr @_ZNSt10unique_ptrIN7rocksdb16TaskLimiterTokenESt14default_deleteIS1_EE11get_deleterEv(ptr noundef nonnull align 8 dereferenceable(8) %0) #4 comdat align 2 {
  %2 = alloca ptr, align 8
  store ptr %0, ptr %2, align 8, !tbaa !451
  %3 = load ptr, ptr %2, align 8
  %4 = getelementptr inbounds nuw %"class.std::unique_ptr.487", ptr %3, i32 0, i32 0
  %5 = call noundef nonnull align 1 dereferenceable(1) ptr @_ZNSt15__uniq_ptr_implIN7rocksdb16TaskLimiterTokenESt14default_deleteIS1_EE10_M_deleterEv(ptr noundef nonnull align 8 dereferenceable(8) %4) #5
  ret ptr %5
}

; Function Attrs: mustprogress nounwind uwtable
define linkonce_odr noundef nonnull align 8 dereferenceable(8) ptr @_ZNSt15__uniq_ptr_implIN7rocksdb16TaskLimiterTokenESt14default_deleteIS1_EE6_M_ptrEv(ptr noundef nonnull align 8 dereferenceable(8) %0) #4 comdat align 2 {
  %2 = alloca ptr, align 8
  store ptr %0, ptr %2, align 8, !tbaa !1993
  %3 = load ptr, ptr %2, align 8
  %4 = getelementptr inbounds nuw %"class.std::__uniq_ptr_impl.489", ptr %3, i32 0, i32 0
  %5 = call noundef nonnull align 8 dereferenceable(8) ptr @_ZSt3getILm0EJPN7rocksdb16TaskLimiterTokenESt14default_deleteIS1_EEERNSt13tuple_elementIXT_ESt5tupleIJDpT0_EEE4typeERS9_(ptr noundef nonnull align 8 dereferenceable(8) %4) #5
  ret ptr %5
}

; Function Attrs: mustprogress nounwind uwtable
define linkonce_odr void @_ZNSt10unique_ptrIN7rocksdb16TaskLimiterTokenESt14default_deleteIS1_EED2Ev(ptr noundef nonnull align 8 dereferenceable(8) %0) unnamed_addr #4 comdat align 2 {
  %2 = alloca ptr, align 8
  %3 = alloca ptr, align 8
  store ptr %0, ptr %2, align 8, !tbaa !451
  %4 = load ptr, ptr %2, align 8
  call void @llvm.lifetime.start.p0(i64 8, ptr %3) #5
  %5 = getelementptr inbounds nuw %"class.std::unique_ptr.487", ptr %4, i32 0, i32 0
  %6 = call noundef nonnull align 8 dereferenceable(8) ptr @_ZNSt15__uniq_ptr_implIN7rocksdb16TaskLimiterTokenESt14default_deleteIS1_EE6_M_ptrEv(ptr noundef nonnull align 8 dereferenceable(8) %5) #5
  store ptr %6, ptr %3, align 8, !tbaa !460
  %7 = load ptr, ptr %3, align 8, !tbaa !460
  %8 = load ptr, ptr %7, align 8, !tbaa !462
  %9 = icmp ne ptr %8, null
  br i1 %9, label %10, label %14

10:                                               ; preds = %1
  %11 = call noundef nonnull align 1 dereferenceable(1) ptr @_ZNSt10unique_ptrIN7rocksdb16TaskLimiterTokenESt14default_deleteIS1_EE11get_deleterEv(ptr noundef nonnull align 8 dereferenceable(8) %4) #5
  %12 = load ptr, ptr %3, align 8, !tbaa !460
  %13 = load ptr, ptr %12, align 8, !tbaa !462
  call void @_ZNKSt14default_deleteIN7rocksdb16TaskLimiterTokenEEclEPS1_(ptr noundef nonnull align 1 dereferenceable(1) %11, ptr noundef %13)
  br label %14

14:                                               ; preds = %10, %1
  %15 = load ptr, ptr %3, align 8, !tbaa !460
  store ptr null, ptr %15, align 8, !tbaa !462
  call void @llvm.lifetime.end.p0(i64 8, ptr %3) #5
  ret void
}

; Function Attrs: inlinehint mustprogress nounwind uwtable
define linkonce_odr void @_ZN7rocksdb6DBImpl19PrepickedCompactionD2Ev(ptr noundef nonnull align 8 dereferenceable(24) %0) unnamed_addr #1 comdat align 2 {
  %2 = alloca ptr, align 8
  store ptr %0, ptr %2, align 8, !tbaa !1618
  %3 = load ptr, ptr %2, align 8
  %4 = getelementptr inbounds nuw %"struct.rocksdb::DBImpl::PrepickedCompaction", ptr %3, i32 0, i32 2
  call void @_ZNSt10unique_ptrIN7rocksdb16TaskLimiterTokenESt14default_deleteIS1_EED2Ev(ptr noundef nonnull align 8 dereferenceable(8) %4) #5
  ret void
}

; Function Attrs: uwtable
define linkonce_odr hidden noundef ptr @_ZTWN7rocksdb15iostats_contextE() #14 comdat {
  %1 = icmp ne ptr @_ZTHN7rocksdb15iostats_contextE, null
  br i1 %1, label %2, label %3

2:                                                ; preds = %0
  call void @_ZTHN7rocksdb15iostats_contextE()
  br label %3

3:                                                ; preds = %2, %0
  %4 = call align 8 ptr @llvm.threadlocal.address.p0(ptr align 8 @_ZN7rocksdb15iostats_contextE)
  ret ptr %4
}

; Function Attrs: mustprogress uwtable
define void @_ZN7rocksdb6DBImpl22BGWorkBottomCompactionEPv(ptr noundef %0) #6 align 2 {
  %2 = alloca ptr, align 8
  %3 = alloca %"struct.rocksdb::DBImpl::CompactionArg", align 8
  %4 = alloca ptr, align 8
  store ptr %0, ptr %2, align 8, !tbaa !36
  call void @llvm.lifetime.start.p0(i64 24, ptr %3) #5
  %5 = load ptr, ptr %2, align 8, !tbaa !36
  call void @llvm.memcpy.p0.p0.i64(ptr align 8 %3, ptr align 8 %5, i64 24, i1 false), !tbaa.struct !1620
  %6 = load ptr, ptr %2, align 8, !tbaa !36
  %7 = icmp eq ptr %6, null
  br i1 %7, label %9, label %8

8:                                                ; preds = %1
  call void @_ZdlPvm(ptr noundef %6, i64 noundef 24) #28
  br label %9

9:                                                ; preds = %8, %1
  %10 = call ptr @_ZTWN7rocksdb15iostats_contextE()
  %11 = getelementptr inbounds nuw %"struct.rocksdb::IOStatsContext", ptr %10, i32 0, i32 0
  store i64 0, ptr %11, align 8, !tbaa !1621
  call void @llvm.lifetime.start.p0(i64 8, ptr %4) #5
  %12 = getelementptr inbounds nuw %"struct.rocksdb::DBImpl::CompactionArg", ptr %3, i32 0, i32 1
  %13 = load ptr, ptr %12, align 8, !tbaa !1330
  store ptr %13, ptr %4, align 8, !tbaa !1618
  %14 = getelementptr inbounds nuw %"struct.rocksdb::DBImpl::CompactionArg", ptr %3, i32 0, i32 0
  %15 = load ptr, ptr %14, align 8, !tbaa !1327
  %16 = load ptr, ptr %4, align 8, !tbaa !1618
  call void @_ZN7rocksdb6DBImpl24BackgroundCallCompactionEPNS0_19PrepickedCompactionENS_3Env8PriorityE(ptr noundef nonnull align 64 dereferenceable(6868) %15, ptr noundef %16, i32 noundef 0)
  %17 = load ptr, ptr %4, align 8, !tbaa !1618
  %18 = icmp eq ptr %17, null
  br i1 %18, label %20, label %19

19:                                               ; preds = %9
  call void @_ZN7rocksdb6DBImpl19PrepickedCompactionD2Ev(ptr noundef nonnull align 8 dereferenceable(24) %17) #5
  call void @_ZdlPvm(ptr noundef %17, i64 noundef 24) #28
  br label %20

20:                                               ; preds = %19, %9
  call void @llvm.lifetime.end.p0(i64 8, ptr %4) #5
  call void @llvm.lifetime.end.p0(i64 24, ptr %3) #5
  ret void
}